; ModuleID = '21/310.c'
source_filename = "21/310.c"
target datalayout = "e-m:e-p270:32:32-p271:32:32-p272:64:64-i64:64-f80:128-n8:16:32:64-S128"
target triple = "x86_64-pc-linux-gnu"

@.str = private unnamed_addr constant [3 x i8] c"%d\00", align 1
@.str.1 = private unnamed_addr constant [4 x i8] c",%d\00", align 1

; Function Attrs: noinline nounwind uwtable
define dso_local void @main() #0 {
  %1 = alloca i32, align 4
  %2 = alloca i32, align 4
  %3 = alloca i32, align 4
  %4 = alloca [100 x i32], align 16
  %5 = alloca i32, align 4
  %6 = alloca i32, align 4
  %7 = alloca i32, align 4
  %8 = alloca float, align 4
  %9 = alloca [100 x float], align 16
  %10 = alloca float, align 4
  store i32 0, i32* %5, align 4
  %11 = call i32 (i8*, ...) @__isoc99_scanf(i8* getelementptr inbounds ([3 x i8], [3 x i8]* @.str, i64 0, i64 0), i32* %1)
  store i32 0, i32* %2, align 4
  br label %12

12:                                               ; preds = %27, %0
  %13 = load i32, i32* %2, align 4
  %14 = load i32, i32* %1, align 4
  %15 = icmp slt i32 %13, %14
  br i1 %15, label %16, label %30

16:                                               ; preds = %12
  %17 = load i32, i32* %2, align 4
  %18 = sext i32 %17 to i64
  %19 = getelementptr inbounds [100 x i32], [100 x i32]* %4, i64 0, i64 %18
  %20 = call i32 (i8*, ...) @__isoc99_scanf(i8* getelementptr inbounds ([3 x i8], [3 x i8]* @.str, i64 0, i64 0), i32* %19)
  %21 = load i32, i32* %2, align 4
  %22 = sext i32 %21 to i64
  %23 = getelementptr inbounds [100 x i32], [100 x i32]* %4, i64 0, i64 %22
  %24 = load i32, i32* %23, align 4
  %25 = load i32, i32* %5, align 4
  %26 = add nsw i32 %25, %24
  store i32 %26, i32* %5, align 4
  br label %27

27:                                               ; preds = %16
  %28 = load i32, i32* %2, align 4
  %29 = add nsw i32 %28, 1
  store i32 %29, i32* %2, align 4
  br label %12

30:                                               ; preds = %12
  %31 = load i32, i32* %5, align 4
  %32 = sitofp i32 %31 to float
  %33 = load i32, i32* %1, align 4
  %34 = sitofp i32 %33 to float
  %35 = fdiv float %32, %34
  store float %35, float* %8, align 4
  store i32 1, i32* %3, align 4
  br label %36

36:                                               ; preds = %81, %30
  %37 = load i32, i32* %3, align 4
  %38 = load i32, i32* %1, align 4
  %39 = icmp slt i32 %37, %38
  br i1 %39, label %40, label %84

40:                                               ; preds = %36
  store i32 0, i32* %2, align 4
  br label %41

41:                                               ; preds = %77, %40
  %42 = load i32, i32* %2, align 4
  %43 = load i32, i32* %1, align 4
  %44 = load i32, i32* %3, align 4
  %45 = sub nsw i32 %43, %44
  %46 = icmp slt i32 %42, %45
  br i1 %46, label %47, label %80

47:                                               ; preds = %41
  %48 = load i32, i32* %2, align 4
  %49 = sext i32 %48 to i64
  %50 = getelementptr inbounds [100 x i32], [100 x i32]* %4, i64 0, i64 %49
  %51 = load i32, i32* %50, align 4
  %52 = load i32, i32* %2, align 4
  %53 = add nsw i32 %52, 1
  %54 = sext i32 %53 to i64
  %55 = getelementptr inbounds [100 x i32], [100 x i32]* %4, i64 0, i64 %54
  %56 = load i32, i32* %55, align 4
  %57 = icmp sgt i32 %51, %56
  br i1 %57, label %58, label %76

58:                                               ; preds = %47
  %59 = load i32, i32* %2, align 4
  %60 = sext i32 %59 to i64
  %61 = getelementptr inbounds [100 x i32], [100 x i32]* %4, i64 0, i64 %60
  %62 = load i32, i32* %61, align 4
  store i32 %62, i32* %6, align 4
  %63 = load i32, i32* %2, align 4
  %64 = add nsw i32 %63, 1
  %65 = sext i32 %64 to i64
  %66 = getelementptr inbounds [100 x i32], [100 x i32]* %4, i64 0, i64 %65
  %67 = load i32, i32* %66, align 4
  %68 = load i32, i32* %2, align 4
  %69 = sext i32 %68 to i64
  %70 = getelementptr inbounds [100 x i32], [100 x i32]* %4, i64 0, i64 %69
  store i32 %67, i32* %70, align 4
  %71 = load i32, i32* %6, align 4
  %72 = load i32, i32* %2, align 4
  %73 = add nsw i32 %72, 1
  %74 = sext i32 %73 to i64
  %75 = getelementptr inbounds [100 x i32], [100 x i32]* %4, i64 0, i64 %74
  store i32 %71, i32* %75, align 4
  br label %76

76:                                               ; preds = %58, %47
  br label %77

77:                                               ; preds = %76
  %78 = load i32, i32* %2, align 4
  %79 = add nsw i32 %78, 1
  store i32 %79, i32* %2, align 4
  br label %41

80:                                               ; preds = %41
  br label %81

81:                                               ; preds = %80
  %82 = load i32, i32* %3, align 4
  %83 = add nsw i32 %82, 1
  store i32 %83, i32* %3, align 4
  br label %36

84:                                               ; preds = %36
  store i32 0, i32* %2, align 4
  br label %85

85:                                               ; preds = %115, %84
  %86 = load i32, i32* %2, align 4
  %87 = load i32, i32* %1, align 4
  %88 = icmp slt i32 %86, %87
  br i1 %88, label %89, label %118

89:                                               ; preds = %85
  %90 = load float, float* %8, align 4
  %91 = load i32, i32* %2, align 4
  %92 = sext i32 %91 to i64
  %93 = getelementptr inbounds [100 x i32], [100 x i32]* %4, i64 0, i64 %92
  %94 = load i32, i32* %93, align 4
  %95 = sitofp i32 %94 to float
  %96 = fsub float %90, %95
  %97 = load i32, i32* %2, align 4
  %98 = sext i32 %97 to i64
  %99 = getelementptr inbounds [100 x float], [100 x float]* %9, i64 0, i64 %98
  store float %96, float* %99, align 4
  %100 = load i32, i32* %2, align 4
  %101 = sext i32 %100 to i64
  %102 = getelementptr inbounds [100 x float], [100 x float]* %9, i64 0, i64 %101
  %103 = load float, float* %102, align 4
  %104 = fcmp olt float %103, 0.000000e+00
  br i1 %104, label %105, label %114

105:                                              ; preds = %89
  %106 = load i32, i32* %2, align 4
  %107 = sext i32 %106 to i64
  %108 = getelementptr inbounds [100 x float], [100 x float]* %9, i64 0, i64 %107
  %109 = load float, float* %108, align 4
  %110 = fneg float %109
  %111 = load i32, i32* %2, align 4
  %112 = sext i32 %111 to i64
  %113 = getelementptr inbounds [100 x float], [100 x float]* %9, i64 0, i64 %112
  store float %110, float* %113, align 4
  br label %114

114:                                              ; preds = %105, %89
  br label %115

115:                                              ; preds = %114
  %116 = load i32, i32* %2, align 4
  %117 = add nsw i32 %116, 1
  store i32 %117, i32* %2, align 4
  br label %85

118:                                              ; preds = %85
  store i32 0, i32* %2, align 4
  br label %119

119:                                              ; preds = %136, %118
  %120 = load i32, i32* %2, align 4
  %121 = load i32, i32* %1, align 4
  %122 = icmp slt i32 %120, %121
  br i1 %122, label %123, label %139

123:                                              ; preds = %119
  store i32 0, i32* %7, align 4
  %124 = load i32, i32* %2, align 4
  %125 = sext i32 %124 to i64
  %126 = getelementptr inbounds [100 x float], [100 x float]* %9, i64 0, i64 %125
  %127 = load float, float* %126, align 4
  %128 = load i32, i32* %7, align 4
  %129 = sext i32 %128 to i64
  %130 = getelementptr inbounds [100 x float], [100 x float]* %9, i64 0, i64 %129
  %131 = load float, float* %130, align 4
  %132 = fcmp ogt float %127, %131
  br i1 %132, label %133, label %135

133:                                              ; preds = %123
  %134 = load i32, i32* %2, align 4
  store i32 %134, i32* %7, align 4
  br label %135

135:                                              ; preds = %133, %123
  br label %136

136:                                              ; preds = %135
  %137 = load i32, i32* %2, align 4
  %138 = add nsw i32 %137, 1
  store i32 %138, i32* %2, align 4
  br label %119

139:                                              ; preds = %119
  %140 = load i32, i32* %7, align 4
  %141 = sext i32 %140 to i64
  %142 = getelementptr inbounds [100 x i32], [100 x i32]* %4, i64 0, i64 %141
  %143 = load i32, i32* %142, align 4
  %144 = call i32 (i8*, ...) @printf(i8* getelementptr inbounds ([3 x i8], [3 x i8]* @.str, i64 0, i64 0), i32 %143)
  %145 = load i32, i32* %7, align 4
  %146 = sext i32 %145 to i64
  %147 = getelementptr inbounds [100 x float], [100 x float]* %9, i64 0, i64 %146
  %148 = load float, float* %147, align 4
  store float %148, float* %10, align 4
  %149 = load i32, i32* %7, align 4
  %150 = sext i32 %149 to i64
  %151 = getelementptr inbounds [100 x float], [100 x float]* %9, i64 0, i64 %150
  store float 0.000000e+00, float* %151, align 4
  store i32 0, i32* %2, align 4
  br label %152

152:                                              ; preds = %173, %139
  %153 = load i32, i32* %2, align 4
  %154 = load i32, i32* %1, align 4
  %155 = icmp slt i32 %153, %154
  br i1 %155, label %156, label %176

156:                                              ; preds = %152
  %157 = load i32, i32* %2, align 4
  %158 = sext i32 %157 to i64
  %159 = getelementptr inbounds [100 x float], [100 x float]* %9, i64 0, i64 %158
  %160 = load float, float* %159, align 4
  %161 = load float, float* %10, align 4
  %162 = fsub float %160, %161
  %163 = fpext float %162 to double
  %164 = call double @llvm.fabs.f64(double %163)
  %165 = fcmp ole double %164, 0x3E7AD7F29ABCAF48
  br i1 %165, label %166, label %172

166:                                              ; preds = %156
  %167 = load i32, i32* %2, align 4
  %168 = sext i32 %167 to i64
  %169 = getelementptr inbounds [100 x i32], [100 x i32]* %4, i64 0, i64 %168
  %170 = load i32, i32* %169, align 4
  %171 = call i32 (i8*, ...) @printf(i8* getelementptr inbounds ([4 x i8], [4 x i8]* @.str.1, i64 0, i64 0), i32 %170)
  br label %172

172:                                              ; preds = %166, %156
  br label %173

173:                                              ; preds = %172
  %174 = load i32, i32* %2, align 4
  %175 = add nsw i32 %174, 1
  store i32 %175, i32* %2, align 4
  br label %152

176:                                              ; preds = %152
  ret void
}

declare dso_local i32 @__isoc99_scanf(i8*, ...) #1

declare dso_local i32 @printf(i8*, ...) #1

; Function Attrs: nounwind readnone speculatable willreturn
declare double @llvm.fabs.f64(double) #2


!llvm.module.flags = !{!0}
!llvm.ident = !{!1}

!0 = !{i32 1, !"wchar_size", i32 4}
!1 = !{!"clang version 10.0.0-4ubuntu1 "}
